; Function Attrs: nounwind uwtable
define internal ptr @_locale_gettext(ptr readnone captures(none) %0, ptr noundef %1) #0 {
  %3 = alloca i64, align 8
  %4 = getelementptr i8, ptr %1, i64 8
  %.val = load ptr, ptr %4, align 8, !tbaa !12
  %5 = getelementptr i8, ptr %.val, i64 168
  %.val10 = load i64, ptr %5, align 8, !tbaa !15
  %6 = and i64 %.val10, 268435456
  %.not = icmp eq i64 %6, 0
  br i1 %.not, label %7, label %8

7:                                                ; preds = %2
  tail call void @_PyArg_BadArgument(ptr noundef nonnull @.str.6, ptr noundef nonnull @.str.40, ptr noundef nonnull @.str.39, ptr noundef nonnull %1) #8
  br label %19

8:                                                ; preds = %2
  %9 = call ptr @PyUnicode_AsUTF8AndSize(ptr noundef nonnull %1, ptr noundef nonnull %3) #8
  %10 = icmp eq ptr %9, null
  br i1 %10, label %19, label %11

11:                                               ; preds = %8
  %12 = call i64 @strlen(ptr noundef nonnull dereferenceable(1) %9) #9
  %13 = load i64, ptr %3, align 8, !tbaa !25
  %.not9 = icmp eq i64 %12, %13
  br i1 %.not9, label %16, label %14

14:                                               ; preds = %11
  %15 = load ptr, ptr @PyExc_ValueError, align 8, !tbaa !10
  call void @PyErr_SetString(ptr noundef %15, ptr noundef nonnull @.str.14) #8
  br label %19

16:                                               ; preds = %11
  %17 = call ptr @dcgettext(ptr noundef null, ptr noundef nonnull %9, i32 noundef 5) #8
  %18 = call ptr @PyUnicode_DecodeLocale(ptr noundef %17, ptr noundef null) #8
  br label %19

19:                                               ; preds = %8, %16, %14, %7
  %.0 = phi ptr [ null, %8 ], [ null, %14 ], [ %18, %16 ], [ null, %7 ]
  ret ptr %.0
}